(dp0
Vname
p1
Vastech
p2
sVversion
p3
V0.42.2
p4
sVport
p5
L2346L
sVuser
p6
Vsomelogin
p7
sVpass
p8
Va1d292f556aa661b720847487960860f17086a0bd11a4320368e9447ff7139de089aa88b6159420814f10194f1aa55a3379fb80ea26ba6397ba75cec811b241a
p9
s.