(dp0
Vname
p1
VIMIE
p2
sVversion
p3
V0.43.8-RC2
p4
sVport
p5
L2349L
sVuser
p6
Vtuptus
p7
sVpass
p8
V1bc5bd4481d5bf6c69d0e221efd86cd50ad0489f3cf903ab9a6b3a2656d036f55508365bb8bd1350ea9a4e32ca80ebdea96d04bd663382c4f0ce4bb656d50f2f
p9
s.